Certificate:
    Data:
        Version: 3 (0x2)
        Serial Number: 1 (0x1)
        Signature Algorithm: sha512WithRSAEncryption
        Issuer: C=SG, ST=Singapore, L=Singapore, O=HOME, OU=Dummy, CN=DUMMY_CA
        Validity
            Not Before: Oct 31 13:32:07 2025 GMT
            Not After : Oct 26 13:32:07 2045 GMT
        Subject: C=SG, ST=Singapore, L=Singapore, O=DEMO, OU=DEMO, CN=client
        Subject Public Key Info:
            Public Key Algorithm: rsaEncryption
                Public-Key: (4096 bit)
                Modulus:
                    00:96:c5:b0:70:5c:91:ef:83:df:9a:fd:61:05:eb:
                    81:42:2c:7a:db:92:e2:08:25:c4:b2:b5:fa:02:c0:
                    3f:76:9d:54:5c:16:06:88:9e:20:ac:64:14:73:11:
                    55:f5:95:4d:aa:f3:8f:2e:f9:5c:7f:dd:ce:a2:09:
                    6c:77:86:93:ab:e2:52:8a:3d:93:ee:3a:78:41:75:
                    f2:78:b1:17:8c:c8:ce:dc:b2:97:a9:5f:c4:5d:48:
                    58:e4:66:42:e6:6a:e3:93:f1:04:a3:f6:58:f9:96:
                    c6:ba:2a:9d:1e:52:cd:a1:40:76:8f:ab:33:84:cf:
                    47:93:31:6d:38:db:8a:22:a4:42:0f:71:b5:44:53:
                    5c:ff:f4:ef:f1:9c:19:72:50:fb:3a:6e:6a:08:ba:
                    3e:a1:a5:0b:39:7b:e8:84:87:eb:16:ce:2e:5c:a3:
                    e4:b1:31:b1:8f:f7:5e:bd:11:38:10:8c:c9:e7:2b:
                    ab:77:ba:13:1a:c3:5d:d6:a9:6d:c6:59:26:84:5d:
                    cf:be:f2:49:36:8b:3b:66:00:dc:99:36:7d:63:0f:
                    41:92:cf:17:75:30:db:67:84:e2:e8:fd:1a:f5:1f:
                    00:72:ff:9c:c5:95:7b:7c:ed:c4:d3:5c:c3:79:62:
                    f9:2a:72:5a:91:c0:52:58:b5:36:be:a6:99:68:ba:
                    eb:c8:44:e8:77:87:7a:b1:78:93:9d:86:81:df:1a:
                    86:a5:ef:45:42:cc:6f:3f:a6:64:b0:3c:d5:58:40:
                    74:7b:f2:f7:57:96:d8:01:47:ed:fd:28:1c:e3:6b:
                    31:c2:f5:ba:3d:7f:36:63:8f:ee:27:27:2b:ee:0f:
                    bb:90:a3:8a:1c:91:5f:8e:63:92:32:ac:89:f4:49:
                    aa:7a:fb:54:77:58:31:f6:71:4e:34:41:64:0f:64:
                    b7:71:21:d1:22:80:5f:e2:9a:86:f6:1a:21:98:31:
                    07:b2:d2:3b:b8:12:e9:fe:cf:98:28:8f:a4:09:2b:
                    cc:86:71:ae:1b:ca:77:66:fd:5e:46:11:7e:e4:93:
                    f8:9e:4f:d7:3f:47:46:1c:94:68:53:8e:39:41:57:
                    1d:a2:5f:07:81:72:47:af:3d:44:b7:44:d9:43:98:
                    3d:a3:89:6c:4e:66:87:6f:ff:66:6f:8f:39:6a:5f:
                    a5:d0:fc:9a:dd:a6:ef:20:bc:74:1d:55:7c:70:d6:
                    ae:69:24:6a:5f:77:73:f6:77:a7:69:7c:c6:29:47:
                    ce:92:25:86:6c:ef:fd:ec:33:01:d8:71:f9:89:31:
                    6e:2e:a9:51:fc:52:5e:1f:db:d6:3a:ad:57:77:21:
                    7a:ab:92:f0:67:33:3e:ea:88:1d:39:3b:f8:fc:a6:
                    b0:c8:1f
                Exponent: 65537 (0x10001)
        X509v3 extensions:
            X509v3 Subject Key Identifier: 
                8D:71:48:44:92:72:E9:1A:26:0B:94:AC:AD:42:11:4F:D2:73:E1:1C
            X509v3 Authority Key Identifier: 
                F0:82:2D:81:B1:74:A2:E3:97:25:D0:F5:BF:4B:DB:CD:77:77:1E:42
            X509v3 Basic Constraints: 
                CA:FALSE
            X509v3 Key Usage: 
                Digital Signature, Non Repudiation, Key Encipherment
            X509v3 Extended Key Usage: 
                TLS Web Client Authentication, E-mail Protection, TLS Web Server Authentication
            X509v3 Subject Alternative Name: 
                DNS:client
            Netscape Comment: 
                OpenSSL Generated Certificate
    Signature Algorithm: sha512WithRSAEncryption
    Signature Value:
        79:0d:fd:85:c2:74:a0:34:d2:51:d4:b1:fb:dc:fa:fd:98:ad:
        df:d7:38:fa:47:53:ad:3c:fd:cc:40:70:98:86:5b:e1:c4:b8:
        f6:87:e4:7e:1d:35:e2:a4:f6:c9:6e:ff:f8:20:2e:87:99:00:
        c1:ec:2c:91:16:95:60:9b:c6:b2:d1:3a:bc:29:6e:bf:d2:34:
        c6:52:03:8a:0d:c2:88:a4:c4:c5:5e:ab:a8:3f:7d:b5:ed:48:
        f9:8f:45:97:b1:4e:e4:20:70:bc:75:57:18:66:75:1f:f9:17:
        f1:a0:19:13:3a:68:82:ec:51:74:6f:65:ef:be:27:a7:77:33:
        a0:37:2f:0d:54:a8:18:c0:fd:3d:b3:dc:bd:ab:a9:df:ae:11:
        cf:3f:95:97:32:15:08:cf:cb:a1:2d:1f:79:50:23:d1:ec:ef:
        47:d6:47:3d:a1:02:23:28:06:c8:76:34:10:01:d2:6f:b1:48:
        ee:78:d0:f1:98:1b:f4:28:fa:d4:16:39:7d:c1:f3:a8:48:94:
        fb:5e:8e:7d:80:81:c6:ac:f8:02:f7:10:e9:b1:ef:69:2e:a3:
        31:24:d1:40:2c:79:40:f5:64:04:92:f2:6b:04:99:d4:50:43:
        93:0a:77:b1:f6:0d:2a:e9:df:d4:b3:87:56:7b:c1:df:2d:27:
        61:9f:6b:44:26:17:b3:ce:64:3a:ae:e7:f9:ee:53:ea:bb:d2:
        ce:ca:9d:cc:55:9f:66:ce:7a:27:bf:e4:ff:38:35:9f:61:a8:
        ce:0c:ff:61:d3:c3:75:5a:65:e8:95:b5:2e:05:cf:2e:7d:91:
        a7:ca:38:d3:3d:bd:d9:af:4d:18:07:9e:9c:8d:f3:8f:4f:6a:
        d8:fe:7b:d2:27:73:02:f6:d5:98:7c:fa:67:c8:60:14:7d:ee:
        b2:f3:a0:77:6b:62:50:49:67:5d:b6:de:95:ea:eb:a5:7a:c2:
        17:de:80:b6:26:98:74:00:30:69:9f:42:ff:3c:e6:80:67:14:
        c1:6a:b8:d9:a8:39:c2:fb:46:b7:c8:1e:38:6b:34:9a:67:07:
        c1:9d:d3:d1:e7:71:ad:f8:91:6b:6d:76:27:7a:57:f0:76:e2:
        57:b6:33:23:f8:f9:39:9f:01:11:92:ba:5a:4e:a8:26:28:ac:
        52:e6:dc:8c:ff:54:ec:fe:eb:ac:43:cc:43:52:00:eb:27:08:
        b3:40:6d:38:d7:bc:43:e3:70:cd:60:fa:88:bf:61:24:35:77:
        8c:3a:44:a3:2b:fb:f2:7b:db:08:68:3e:ee:28:69:13:97:99:
        25:3e:0d:3f:16:0d:b5:89:4f:ef:f7:5d:2f:95:a4:f7:11:16:
        cc:9b:fe:93:23:c3:73:a2
-----BEGIN CERTIFICATE-----
MIIGDDCCA/SgAwIBAgIBATANBgkqhkiG9w0BAQ0FADBnMQswCQYDVQQGEwJTRzES
MBAGA1UECAwJU2luZ2Fwb3JlMRIwEAYDVQQHDAlTaW5nYXBvcmUxDTALBgNVBAoM
BEhPTUUxDjAMBgNVBAsMBUR1bW15MREwDwYDVQQDDAhEVU1NWV9DQTAeFw0yNTEw
MzExMzMyMDdaFw00NTEwMjYxMzMyMDdaMGQxCzAJBgNVBAYTAlNHMRIwEAYDVQQI
DAlTaW5nYXBvcmUxEjAQBgNVBAcMCVNpbmdhcG9yZTENMAsGA1UECgwEREVNTzEN
MAsGA1UECwwEREVNTzEPMA0GA1UEAwwGY2xpZW50MIICIjANBgkqhkiG9w0BAQEF
AAOCAg8AMIICCgKCAgEAlsWwcFyR74Pfmv1hBeuBQix625LiCCXEsrX6AsA/dp1U
XBYGiJ4grGQUcxFV9ZVNqvOPLvlcf93Ooglsd4aTq+JSij2T7jp4QXXyeLEXjMjO
3LKXqV/EXUhY5GZC5mrjk/EEo/ZY+ZbGuiqdHlLNoUB2j6szhM9HkzFtONuKIqRC
D3G1RFNc//Tv8ZwZclD7Om5qCLo+oaULOXvohIfrFs4uXKPksTGxj/devRE4EIzJ
5yurd7oTGsNd1qltxlkmhF3PvvJJNos7ZgDcmTZ9Yw9Bks8XdTDbZ4Ti6P0a9R8A
cv+cxZV7fO3E01zDeWL5KnJakcBSWLU2vqaZaLrryETod4d6sXiTnYaB3xqGpe9F
QsxvP6ZksDzVWEB0e/L3V5bYAUft/Sgc42sxwvW6PX82Y4/uJycr7g+7kKOKHJFf
jmOSMqyJ9EmqevtUd1gx9nFONEFkD2S3cSHRIoBf4pqG9hohmDEHstI7uBLp/s+Y
KI+kCSvMhnGuG8p3Zv1eRhF+5JP4nk/XP0dGHJRoU445QVcdol8HgXJHrz1Et0TZ
Q5g9o4lsTmaHb/9mb485al+l0Pya3abvILx0HVV8cNauaSRqX3dz9nenaXzGKUfO
kiWGbO/97DMB2HH5iTFuLqlR/FJeH9vWOq1XdyF6q5LwZzM+6ogdOTv4/KawyB8C
AwEAAaOBxTCBwjAdBgNVHQ4EFgQUjXFIRJJy6RomC5SsrUIRT9Jz4RwwHwYDVR0j
BBgwFoAU8IItgbF0ouOXJdD1v0vbzXd3HkIwCQYDVR0TBAIwADALBgNVHQ8EBAMC
BeAwJwYDVR0lBCAwHgYIKwYBBQUHAwIGCCsGAQUFBwMEBggrBgEFBQcDATARBgNV
HREECjAIggZjbGllbnQwLAYJYIZIAYb4QgENBB8WHU9wZW5TU0wgR2VuZXJhdGVk
IENlcnRpZmljYXRlMA0GCSqGSIb3DQEBDQUAA4ICAQB5Df2FwnSgNNJR1LH73Pr9
mK3f1zj6R1OtPP3MQHCYhlvhxLj2h+R+HTXipPbJbv/4IC6HmQDB7CyRFpVgm8ay
0Tq8KW6/0jTGUgOKDcKIpMTFXquoP3217Uj5j0WXsU7kIHC8dVcYZnUf+RfxoBkT
OmiC7FF0b2XvviendzOgNy8NVKgYwP09s9y9q6nfrhHPP5WXMhUIz8uhLR95UCPR
7O9H1kc9oQIjKAbIdjQQAdJvsUjueNDxmBv0KPrUFjl9wfOoSJT7Xo59gIHGrPgC
9xDpse9pLqMxJNFALHlA9WQEkvJrBJnUUEOTCnex9g0q6d/Us4dWe8HfLSdhn2tE
JhezzmQ6ruf57lPqu9LOyp3MVZ9mznonv+T/ODWfYajODP9h08N1WmXolbUuBc8u
fZGnyjjTPb3Zr00YB56cjfOPT2rY/nvSJ3MC9tWYfPpnyGAUfe6y86B3a2JQSWdd
tt6V6uulesIX3oC2Jph0ADBpn0L/POaAZxTBarjZqDnC+0a3yB44azSaZwfBndPR
53Gt+JFrbXYnelfwduJXtjMj+Pk5nwERkrpaTqgmKKxS5tyM/1Ts/uusQ8xDUgDr
JwizQG0417xD43DNYPqIv2EkNXeMOkSjK/vye9sIaD7uKGkTl5klPg0/Fg21iU/v
910vlaT3ERbMm/6TI8Nzog==
-----END CERTIFICATE-----

