Certificate:
    Data:
        Version: 3 (0x2)
        Serial Number: 0 (0x0)
        Signature Algorithm: sha512WithRSAEncryption
        Issuer: C=SG, ST=Singapore, L=Singapore, O=HOME, OU=Dummy, CN=DUMMY_CA
        Validity
            Not Before: Oct 31 13:31:18 2025 GMT
            Not After : Oct 26 13:31:18 2045 GMT
        Subject: C=SG, ST=Singapore, L=Singpapore, O=DEMO, OU=DEMO, CN=any
        Subject Public Key Info:
            Public Key Algorithm: rsaEncryption
                Public-Key: (4096 bit)
                Modulus:
                    00:c9:4a:a6:b3:e4:28:b4:13:7d:47:88:f0:f7:21:
                    63:ed:f7:63:05:65:95:c0:10:5c:37:97:6d:e5:99:
                    54:d2:9b:d0:7f:62:05:3f:54:d1:3f:c4:72:a5:4c:
                    cb:9a:db:00:56:3f:85:42:ee:e9:b4:1e:60:9e:15:
                    7b:09:69:12:8f:37:5b:ef:8a:24:05:d8:66:f2:39:
                    62:12:95:7b:7b:f1:85:d4:fb:c4:ea:13:4e:1f:12:
                    43:b2:4c:ac:fa:f9:9e:0f:e4:64:f3:bf:88:bb:af:
                    71:fb:06:57:1d:97:1c:fe:9f:5c:38:66:10:57:88:
                    6a:99:04:01:f5:93:a5:70:5e:a7:ea:1c:de:2e:95:
                    e7:66:84:0b:2a:8e:4c:a1:3e:20:8b:7f:74:59:be:
                    1b:0e:d3:bb:c7:e9:2f:36:10:93:8b:40:c8:7a:92:
                    93:12:4c:43:3f:31:77:67:89:64:d5:a2:79:2d:ce:
                    0b:89:48:d0:2b:72:fa:28:2a:16:2d:36:9b:47:61:
                    ef:85:da:1d:ce:c0:0f:65:50:55:ac:55:0a:76:3f:
                    57:7f:aa:df:86:b9:83:2b:84:e7:88:87:52:e5:5e:
                    48:71:b3:cd:03:9c:4c:dd:fa:6e:86:c4:78:3a:d6:
                    37:8c:5c:56:15:3a:c8:7a:dc:1e:3d:a5:4a:46:58:
                    3b:e7:87:ab:54:27:16:f4:f5:b4:c9:10:fc:cf:33:
                    25:d9:45:9c:0a:3d:24:31:74:ef:18:7b:4e:48:58:
                    4c:5b:a4:0c:fc:58:63:e4:65:dd:85:0f:3c:d2:20:
                    18:d9:de:83:75:02:63:c2:4f:b6:13:1c:3e:88:7d:
                    b1:39:ab:51:79:20:f1:39:7d:78:a8:d6:33:f3:a2:
                    4d:04:15:7f:87:8b:ee:c3:f2:2b:ba:09:68:96:7c:
                    d0:4c:7a:21:1c:05:62:bd:59:5f:a9:03:96:28:b3:
                    4f:06:33:b1:d7:c4:c7:90:44:d0:90:74:05:19:6d:
                    1f:14:e6:3d:09:93:69:fd:d0:21:12:84:fd:3b:75:
                    c4:6a:13:22:2e:45:30:cc:88:83:6c:bd:c9:98:44:
                    fe:ca:75:c7:5e:d5:45:12:c6:31:ee:df:7b:3b:05:
                    37:37:95:f4:ba:43:34:aa:74:0e:5f:f3:c2:d7:cc:
                    78:1a:24:ea:c4:a8:23:cd:e6:fc:b0:ad:d7:a7:8a:
                    ee:10:02:5f:66:56:3e:e3:24:f8:7e:f3:24:80:07:
                    cd:37:bc:3f:25:43:3b:97:61:dd:21:78:b5:51:30:
                    e5:a4:97:51:fc:df:c7:62:bf:7b:d2:ec:0e:39:77:
                    29:62:09:ab:e2:f2:25:d0:c1:c1:f5:ea:37:bc:fb:
                    00:d2:b7
                Exponent: 65537 (0x10001)
        X509v3 extensions:
            X509v3 Subject Key Identifier: 
                8D:49:79:62:B8:4B:BC:31:41:A4:F1:21:B9:B5:2C:A6:7B:5A:5E:46
            X509v3 Authority Key Identifier: 
                F0:82:2D:81:B1:74:A2:E3:97:25:D0:F5:BF:4B:DB:CD:77:77:1E:42
            X509v3 Basic Constraints: 
                CA:FALSE
            X509v3 Key Usage: 
                Digital Signature, Non Repudiation, Key Encipherment
            X509v3 Extended Key Usage: 
                TLS Web Client Authentication, E-mail Protection, TLS Web Server Authentication
            X509v3 Subject Alternative Name: 
                DNS:any, DNS:*.example.com, DNS:*.acme.com, DNS:*.test.com, DNS:*.wushilin.net
            Netscape Comment: 
                OpenSSL Generated Certificate
    Signature Algorithm: sha512WithRSAEncryption
    Signature Value:
        a9:7f:28:11:81:f8:76:de:14:78:8c:3e:b3:69:ba:ea:ae:13:
        6f:84:47:e6:62:ac:7d:55:c6:ca:79:b4:1d:42:71:0e:e9:ca:
        17:76:d1:11:83:61:67:5e:b5:73:3a:d5:77:23:53:41:70:04:
        a7:82:53:26:4b:87:78:19:f3:48:26:b8:80:43:c3:f2:67:d6:
        be:39:05:5d:66:01:c2:78:7b:24:71:47:9a:cb:32:d2:03:d6:
        be:9b:80:f3:51:d8:07:cb:96:ec:c6:8b:ee:da:7a:e9:4c:f4:
        30:a8:48:0e:54:eb:41:8d:9e:89:0e:61:40:fb:e6:ae:b3:2b:
        73:01:d6:c6:a5:0c:74:9b:c5:a2:6c:ad:26:51:46:a9:fb:47:
        56:45:dc:77:1a:f4:f8:02:c5:3f:93:6a:3d:33:d2:49:17:d5:
        6d:d7:5f:3e:a9:a5:95:81:05:d9:b3:01:fd:40:26:3b:70:90:
        c8:d3:b6:ff:83:df:7f:24:52:43:8d:8e:58:3d:ee:f8:cf:69:
        83:1b:92:d6:b8:03:cc:b5:63:41:d5:34:ec:d2:c5:0c:b9:30:
        9b:47:77:37:16:aa:00:56:dc:a1:1b:71:93:93:ea:aa:6d:ff:
        65:52:f3:dc:a8:99:53:b4:c3:d8:9c:e1:13:b9:57:9f:7a:6d:
        c7:90:7c:a9:20:4a:1c:29:a3:89:1a:52:42:59:ab:94:be:9e:
        ea:60:16:08:4c:1c:eb:c4:c6:61:14:1f:92:22:57:4d:7a:30:
        a0:3f:7a:e1:83:cd:77:d1:61:92:e8:cb:89:15:59:2b:cd:81:
        03:8a:96:56:e5:10:a0:d0:ee:e8:26:b1:ea:c4:16:50:c3:70:
        ac:66:55:65:cf:eb:a9:1b:04:e0:27:91:55:d3:3a:df:b0:ea:
        d3:dc:50:0b:54:38:c6:25:e5:c6:8f:b0:53:9f:04:6e:96:37:
        f5:ca:9e:69:76:d2:d0:3b:51:b6:cc:f7:da:89:4a:7d:51:a9:
        00:87:b5:cd:ee:ca:ee:1e:e9:67:de:0f:71:a4:df:16:bd:40:
        50:4c:bd:eb:87:c2:e7:16:62:96:2f:06:7b:35:83:7e:74:ad:
        45:81:3a:66:71:99:98:3d:8a:1c:c6:2c:7a:12:f9:b2:d8:77:
        82:60:19:8e:6a:29:5a:d4:39:cb:ac:9c:3f:88:23:05:90:4d:
        84:81:15:89:9e:a2:2e:90:b4:95:bf:61:6e:b9:ba:60:56:ee:
        c8:18:39:50:d6:89:9a:26:a8:ad:5e:72:00:56:89:17:07:3b:
        a3:06:18:03:c1:90:69:68:5a:89:ba:2d:26:78:2a:39:f1:81:
        19:72:c5:31:26:2c:cd:5b
-----BEGIN CERTIFICATE-----
MIIGPjCCBCagAwIBAgIBADANBgkqhkiG9w0BAQ0FADBnMQswCQYDVQQGEwJTRzES
MBAGA1UECAwJU2luZ2Fwb3JlMRIwEAYDVQQHDAlTaW5nYXBvcmUxDTALBgNVBAoM
BEhPTUUxDjAMBgNVBAsMBUR1bW15MREwDwYDVQQDDAhEVU1NWV9DQTAeFw0yNTEw
MzExMzMxMThaFw00NTEwMjYxMzMxMThaMGIxCzAJBgNVBAYTAlNHMRIwEAYDVQQI
DAlTaW5nYXBvcmUxEzARBgNVBAcMClNpbmdwYXBvcmUxDTALBgNVBAoMBERFTU8x
DTALBgNVBAsMBERFTU8xDDAKBgNVBAMMA2FueTCCAiIwDQYJKoZIhvcNAQEBBQAD
ggIPADCCAgoCggIBAMlKprPkKLQTfUeI8PchY+33YwVllcAQXDeXbeWZVNKb0H9i
BT9U0T/EcqVMy5rbAFY/hULu6bQeYJ4VewlpEo83W++KJAXYZvI5YhKVe3vxhdT7
xOoTTh8SQ7JMrPr5ng/kZPO/iLuvcfsGVx2XHP6fXDhmEFeIapkEAfWTpXBep+oc
3i6V52aECyqOTKE+IIt/dFm+Gw7Tu8fpLzYQk4tAyHqSkxJMQz8xd2eJZNWieS3O
C4lI0Cty+igqFi02m0dh74XaHc7AD2VQVaxVCnY/V3+q34a5gyuE54iHUuVeSHGz
zQOcTN36bobEeDrWN4xcVhU6yHrcHj2lSkZYO+eHq1QnFvT1tMkQ/M8zJdlFnAo9
JDF07xh7TkhYTFukDPxYY+Rl3YUPPNIgGNneg3UCY8JPthMcPoh9sTmrUXkg8Tl9
eKjWM/OiTQQVf4eL7sPyK7oJaJZ80Ex6IRwFYr1ZX6kDliizTwYzsdfEx5BE0JB0
BRltHxTmPQmTaf3QIRKE/Tt1xGoTIi5FMMyIg2y9yZhE/sp1x17VRRLGMe7fezsF
NzeV9LpDNKp0Dl/zwtfMeBok6sSoI83m/LCt16eK7hACX2ZWPuMk+H7zJIAHzTe8
PyVDO5dh3SF4tVEw5aSXUfzfx2K/e9LsDjl3KWIJq+LyJdDBwfXqN7z7ANK3AgMB
AAGjgfkwgfYwHQYDVR0OBBYEFI1JeWK4S7wxQaTxIbm1LKZ7Wl5GMB8GA1UdIwQY
MBaAFPCCLYGxdKLjlyXQ9b9L2813dx5CMAkGA1UdEwQCMAAwCwYDVR0PBAQDAgXg
MCcGA1UdJQQgMB4GCCsGAQUFBwMCBggrBgEFBQcDBAYIKwYBBQUHAwEwRQYDVR0R
BD4wPIIDYW55gg0qLmV4YW1wbGUuY29tggoqLmFjbWUuY29tggoqLnRlc3QuY29t
gg4qLnd1c2hpbGluLm5ldDAsBglghkgBhvhCAQ0EHxYdT3BlblNTTCBHZW5lcmF0
ZWQgQ2VydGlmaWNhdGUwDQYJKoZIhvcNAQENBQADggIBAKl/KBGB+HbeFHiMPrNp
uuquE2+ER+ZirH1Vxsp5tB1CcQ7pyhd20RGDYWdetXM61XcjU0FwBKeCUyZLh3gZ
80gmuIBDw/Jn1r45BV1mAcJ4eyRxR5rLMtID1r6bgPNR2AfLluzGi+7aeulM9DCo
SA5U60GNnokOYUD75q6zK3MB1salDHSbxaJsrSZRRqn7R1ZF3Hca9PgCxT+Taj0z
0kkX1W3XXz6ppZWBBdmzAf1AJjtwkMjTtv+D338kUkONjlg97vjPaYMbkta4A8y1
Y0HVNOzSxQy5MJtHdzcWqgBW3KEbcZOT6qpt/2VS89yomVO0w9ic4RO5V596bceQ
fKkgShwpo4kaUkJZq5S+nupgFghMHOvExmEUH5IiV016MKA/euGDzXfRYZLoy4kV
WSvNgQOKllblEKDQ7ugmserEFlDDcKxmVWXP66kbBOAnkVXTOt+w6tPcUAtUOMYl
5caPsFOfBG6WN/XKnml20tA7UbbM99qJSn1RqQCHtc3uyu4e6WfeD3Gk3xa9QFBM
veuHwucWYpYvBns1g350rUWBOmZxmZg9ihzGLHoS+bLYd4JgGY5qKVrUOcusnD+I
IwWQTYSBFYmeoi6QtJW/YW65umBW7sgYOVDWiZomqK1ecgBWiRcHO6MGGAPBkGlo
Wom6LSZ4KjnxgRlyxTEmLM1b
-----END CERTIFICATE-----

